; Function Attrs: mustprogress nofree norecurse nosync nounwind willreturn memory(read, argmem: readwrite, inaccessiblemem: none) uwtable
define void @_ZN14duckdb_parquet12MicroSecondsC2Ev(ptr noundef nonnull writeonly align 8 captures(none) dereferenceable(8) initializes((0, 8)) %0, ptr noundef readonly captures(none) %1) unnamed_addr #7 align 2 {
  %3 = load ptr, ptr %1, align 8
  store ptr %3, ptr %0, align 8, !tbaa !22
  %4 = getelementptr inbounds nuw i8, ptr %1, i64 8
  %5 = load ptr, ptr %4, align 8
  %6 = getelementptr i8, ptr %3, i64 -48
  %7 = load i64, ptr %6, align 8
  %8 = getelementptr inbounds i8, ptr %0, i64 %7
  store ptr %5, ptr %8, align 8, !tbaa !22
  ret void
}